target datalayout = "e-m:e-p270:32:32-p271:32:32-p272:64:64-i64:64-i128:128-f80:128-n8:16:32:64-S128"
target triple = "x86_64-pc-linux-gnu"

@hf_atm_le_control_tlv_type = internal global i32 0, align 4
@hf_atm_le_control_tlv_length = internal global i32 0, align 4
@ett_atm_lane_lc_tlv = internal global i32 0, align 4
@.str.353 = private unnamed_addr constant [13 x i8] c"TLV type: %s\00", align 1
@.str.354 = private unnamed_addr constant [17 x i8] c"Unknown (0x%08x)\00", align 1

; Function Attrs: null_pointer_is_valid sspstrong uwtable
define internal void @dissect_le_control_tlvs(ptr noundef %0, i32 noundef %1, i32 noundef %2, ptr noundef %3) #1 {
  %5 = alloca ptr, align 8
  %6 = alloca i32, align 4
  %7 = alloca i32, align 4
  %8 = alloca ptr, align 8
  %9 = alloca i32, align 4
  %10 = alloca i8, align 1
  %11 = alloca ptr, align 8
  store ptr %0, ptr %5, align 8
  store i32 %1, ptr %6, align 4
  store i32 %2, ptr %7, align 4
  store ptr %3, ptr %8, align 8
  call void @llvm.lifetime.start.p0(i64 4, ptr %9) #9
  call void @llvm.lifetime.start.p0(i64 1, ptr %10) #9
  call void @llvm.lifetime.start.p0(i64 8, ptr %11) #9
  br label %12

12:                                               ; preds = %15, %4
  %13 = load i32, ptr %7, align 4
  %14 = icmp ne i32 %13, 0
  br i1 %14, label %15, label %51

15:                                               ; preds = %12
  %16 = load ptr, ptr %5, align 8
  %17 = load i32, ptr %6, align 4
  %18 = call i32 @tvb_get_ntohl(ptr noundef %16, i32 noundef %17)
  store i32 %18, ptr %9, align 4
  %19 = load ptr, ptr %5, align 8
  %20 = load i32, ptr %6, align 4
  %21 = add i32 %20, 4
  %22 = call zeroext i8 @tvb_get_uint8(ptr noundef %19, i32 noundef %21)
  store i8 %22, ptr %10, align 1
  %23 = load ptr, ptr %8, align 8
  %24 = load ptr, ptr %5, align 8
  %25 = load i32, ptr %6, align 4
  %26 = load i8, ptr %10, align 1
  %27 = zext i8 %26 to i32
  %28 = add i32 5, %27
  %29 = load i32, ptr @ett_atm_lane_lc_tlv, align 4
  %30 = load i32, ptr %9, align 4
  %31 = call ptr @val_to_str(i32 noundef %30, ptr noundef @le_tlv_type_vals, ptr noundef @.str.354)
  %32 = call ptr (ptr, ptr, i32, i32, i32, ptr, ptr, ...) @proto_tree_add_subtree_format(ptr noundef %23, ptr noundef %24, i32 noundef %25, i32 noundef %28, i32 noundef %29, ptr noundef null, ptr noundef @.str.353, ptr noundef %31)
  store ptr %32, ptr %11, align 8
  %33 = load ptr, ptr %11, align 8
  %34 = load i32, ptr @hf_atm_le_control_tlv_type, align 4
  %35 = load ptr, ptr %5, align 8
  %36 = load i32, ptr %6, align 4
  %37 = call ptr @proto_tree_add_item(ptr noundef %33, i32 noundef %34, ptr noundef %35, i32 noundef %36, i32 noundef 4, i32 noundef 0)
  %38 = load ptr, ptr %11, align 8
  %39 = load i32, ptr @hf_atm_le_control_tlv_length, align 4
  %40 = load ptr, ptr %5, align 8
  %41 = load i32, ptr %6, align 4
  %42 = add i32 %41, 4
  %43 = call ptr @proto_tree_add_item(ptr noundef %38, i32 noundef %39, ptr noundef %40, i32 noundef %42, i32 noundef 1, i32 noundef 0)
  %44 = load i8, ptr %10, align 1
  %45 = zext i8 %44 to i32
  %46 = add i32 5, %45
  %47 = load i32, ptr %6, align 4
  %48 = add i32 %47, %46
  store i32 %48, ptr %6, align 4
  %49 = load i32, ptr %7, align 4
  %50 = add i32 %49, -1
  store i32 %50, ptr %7, align 4
  br label %12, !llvm.loop !10

51:                                               ; preds = %12
  call void @llvm.lifetime.end.p0(i64 8, ptr %11) #9
  call void @llvm.lifetime.end.p0(i64 1, ptr %10) #9
  call void @llvm.lifetime.end.p0(i64 4, ptr %9) #9
  ret void
}