; Function Attrs: null_pointer_is_valid sspstrong uwtable
define internal fastcc void @dissect_le_control_tlvs(ptr noundef %0, i32 noundef range(i32 0, 256) %1, ptr noundef %2) unnamed_addr #1 {
  %.not19 = icmp eq i32 %1, 0
  br i1 %.not19, label %._crit_edge, label %.lr.ph

.lr.ph:                                           ; preds = %3, %.lr.ph
  %.021 = phi i32 [ %16, %.lr.ph ], [ 108, %3 ]
  %.01820 = phi i32 [ %17, %.lr.ph ], [ %1, %3 ]
  %4 = tail call i32 @tvb_get_ntohl(ptr noundef %0, i32 noundef %.021)
  %5 = add i32 %.021, 4
  %6 = tail call zeroext i8 @tvb_get_uint8(ptr noundef %0, i32 noundef %5)
  %7 = zext i8 %6 to i32
  %8 = add nuw nsw i32 %7, 5
  %9 = load i32, ptr @ett_atm_lane_lc_tlv, align 4
  %10 = tail call ptr @val_to_str(i32 noundef %4, ptr noundef nonnull @le_tlv_type_vals, ptr noundef nonnull @.str.354)
  %11 = tail call ptr (ptr, ptr, i32, i32, i32, ptr, ptr, ...) @proto_tree_add_subtree_format(ptr noundef %2, ptr noundef %0, i32 noundef %.021, i32 noundef %8, i32 noundef %9, ptr noundef null, ptr noundef nonnull @.str.353, ptr noundef %10)
  %12 = load i32, ptr @hf_atm_le_control_tlv_type, align 4
  %13 = tail call ptr @proto_tree_add_item(ptr noundef %11, i32 noundef %12, ptr noundef %0, i32 noundef %.021, i32 noundef 4, i32 noundef 0)
  %14 = load i32, ptr @hf_atm_le_control_tlv_length, align 4
  %15 = tail call ptr @proto_tree_add_item(ptr noundef %11, i32 noundef %14, ptr noundef %0, i32 noundef %5, i32 noundef 1, i32 noundef 0)
  %16 = add i32 %8, %.021
  %17 = add nsw i32 %.01820, -1
  %.not = icmp eq i32 %17, 0
  br i1 %.not, label %._crit_edge, label %.lr.ph, !llvm.loop !10

._crit_edge:                                      ; preds = %.lr.ph, %3
  ret void
}